target datalayout = "e-m:e-p270:32:32-p271:32:32-p272:64:64-i64:64-i128:128-f80:128-n8:16:32:64-S128"
target triple = "x86_64-unknown-linux-gnu"

%"class.icu_75::DecimalFormatSymbols" = type <{ %"class.icu_75::UObject", [29 x %"class.icu_75::UnicodeString"], %"class.icu_75::UnicodeString", i32, [4 x i8], %"class.icu_75::Locale", [157 x i8], [157 x i8], [6 x i8], ptr, [3 x %"class.icu_75::UnicodeString"], [3 x %"class.icu_75::UnicodeString"], i8, i8, [9 x i8], [5 x i8] }>
%"class.icu_75::UObject" = type { ptr }
%"class.icu_75::UnicodeString" = type { %"class.icu_75::Replaceable", %"union.icu_75::UnicodeString::StackBufferOrFields" }
%"class.icu_75::Replaceable" = type { %"class.icu_75::UObject" }
%"union.icu_75::UnicodeString::StackBufferOrFields" = type { %struct.anon.0, [32 x i8] }
%struct.anon.0 = type { i16, i32, i32, ptr }
%"class.icu_75::Locale" = type <{ %"class.icu_75::UObject", [12 x i8], [6 x i8], [4 x i8], [2 x i8], i32, [4 x i8], ptr, [157 x i8], [3 x i8], ptr, i8, [7 x i8] }>

; Function Attrs: mustprogress uwtable
define noundef nonnull align 8 dereferenceable(2883) ptr @_ZN6icu_7520DecimalFormatSymbolsaSERKS0_(ptr noundef nonnull align 8 dereferenceable(2883) %this, ptr noundef nonnull align 8 dereferenceable(2883) %rhs) #1 align 2 {
entry:
  %this.addr = alloca ptr, align 8
  %rhs.addr = alloca ptr, align 8
  %i = alloca i32, align 4
  %i6 = alloca i32, align 4
  store ptr %this, ptr %this.addr, align 8
  store ptr %rhs, ptr %rhs.addr, align 8
  %this1 = load ptr, ptr %this.addr, align 8
  %0 = load ptr, ptr %rhs.addr, align 8
  %cmp = icmp ne ptr %this1, %0
  br i1 %cmp, label %if.then, label %if.end

if.then:                                          ; preds = %entry
  store i32 0, ptr %i, align 4
  br label %for.cond

for.cond:                                         ; preds = %for.inc, %if.then
  %1 = load i32, ptr %i, align 4
  %cmp2 = icmp slt i32 %1, 29
  br i1 %cmp2, label %for.body, label %for.end

for.body:                                         ; preds = %for.cond
  %fSymbols = getelementptr inbounds %"class.icu_75::DecimalFormatSymbols", ptr %this1, i32 0, i32 1
  %2 = load i32, ptr %i, align 4
  %idxprom = zext i32 %2 to i64
  %arrayidx = getelementptr inbounds [29 x %"class.icu_75::UnicodeString"], ptr %fSymbols, i64 0, i64 %idxprom
  %3 = load ptr, ptr %rhs.addr, align 8
  %fSymbols3 = getelementptr inbounds %"class.icu_75::DecimalFormatSymbols", ptr %3, i32 0, i32 1
  %4 = load i32, ptr %i, align 4
  %idxprom4 = zext i32 %4 to i64
  %arrayidx5 = getelementptr inbounds [29 x %"class.icu_75::UnicodeString"], ptr %fSymbols3, i64 0, i64 %idxprom4
  %call = call noundef nonnull align 8 dereferenceable(64) ptr @_ZN6icu_7513UnicodeString12fastCopyFromERKS0_(ptr noundef nonnull align 8 dereferenceable(64) %arrayidx, ptr noundef nonnull align 8 dereferenceable(64) %arrayidx5)
  br label %for.inc

for.inc:                                          ; preds = %for.body
  %5 = load i32, ptr %i, align 4
  %inc = add nsw i32 %5, 1
  store i32 %inc, ptr %i, align 4
  br label %for.cond, !llvm.loop !7

for.end:                                          ; preds = %for.cond
  store i32 0, ptr %i6, align 4
  br label %for.cond7

for.cond7:                                        ; preds = %for.inc22, %for.end
  %6 = load i32, ptr %i6, align 4
  %cmp8 = icmp slt i32 %6, 3
  br i1 %cmp8, label %for.body9, label %for.end24

for.body9:                                        ; preds = %for.cond7
  %currencySpcBeforeSym = getelementptr inbounds %"class.icu_75::DecimalFormatSymbols", ptr %this1, i32 0, i32 10
  %7 = load i32, ptr %i6, align 4
  %idxprom10 = sext i32 %7 to i64
  %arrayidx11 = getelementptr inbounds [3 x %"class.icu_75::UnicodeString"], ptr %currencySpcBeforeSym, i64 0, i64 %idxprom10
  %8 = load ptr, ptr %rhs.addr, align 8
  %currencySpcBeforeSym12 = getelementptr inbounds %"class.icu_75::DecimalFormatSymbols", ptr %8, i32 0, i32 10
  %9 = load i32, ptr %i6, align 4
  %idxprom13 = sext i32 %9 to i64
  %arrayidx14 = getelementptr inbounds [3 x %"class.icu_75::UnicodeString"], ptr %currencySpcBeforeSym12, i64 0, i64 %idxprom13
  %call15 = call noundef nonnull align 8 dereferenceable(64) ptr @_ZN6icu_7513UnicodeString12fastCopyFromERKS0_(ptr noundef nonnull align 8 dereferenceable(64) %arrayidx11, ptr noundef nonnull align 8 dereferenceable(64) %arrayidx14)
  %currencySpcAfterSym = getelementptr inbounds %"class.icu_75::DecimalFormatSymbols", ptr %this1, i32 0, i32 11
  %10 = load i32, ptr %i6, align 4
  %idxprom16 = sext i32 %10 to i64
  %arrayidx17 = getelementptr inbounds [3 x %"class.icu_75::UnicodeString"], ptr %currencySpcAfterSym, i64 0, i64 %idxprom16
  %11 = load ptr, ptr %rhs.addr, align 8
  %currencySpcAfterSym18 = getelementptr inbounds %"class.icu_75::DecimalFormatSymbols", ptr %11, i32 0, i32 11
  %12 = load i32, ptr %i6, align 4
  %idxprom19 = sext i32 %12 to i64
  %arrayidx20 = getelementptr inbounds [3 x %"class.icu_75::UnicodeString"], ptr %currencySpcAfterSym18, i64 0, i64 %idxprom19
  %call21 = call noundef nonnull align 8 dereferenceable(64) ptr @_ZN6icu_7513UnicodeString12fastCopyFromERKS0_(ptr noundef nonnull align 8 dereferenceable(64) %arrayidx17, ptr noundef nonnull align 8 dereferenceable(64) %arrayidx20)
  br label %for.inc22

for.inc22:                                        ; preds = %for.body9
  %13 = load i32, ptr %i6, align 4
  %inc23 = add nsw i32 %13, 1
  store i32 %inc23, ptr %i6, align 4
  br label %for.cond7, !llvm.loop !8

for.end24:                                        ; preds = %for.cond7
  %14 = load ptr, ptr %rhs.addr, align 8
  %locale = getelementptr inbounds %"class.icu_75::DecimalFormatSymbols", ptr %14, i32 0, i32 5
  %locale25 = getelementptr inbounds %"class.icu_75::DecimalFormatSymbols", ptr %this1, i32 0, i32 5
  %call26 = call noundef nonnull align 8 dereferenceable(217) ptr @_ZN6icu_756LocaleaSERKS0_(ptr noundef nonnull align 8 dereferenceable(217) %locale25, ptr noundef nonnull align 8 dereferenceable(217) %locale)
  %validLocale = getelementptr inbounds %"class.icu_75::DecimalFormatSymbols", ptr %this1, i32 0, i32 7
  %arraydecay = getelementptr inbounds [157 x i8], ptr %validLocale, i64 0, i64 0
  %15 = load ptr, ptr %rhs.addr, align 8
  %validLocale27 = getelementptr inbounds %"class.icu_75::DecimalFormatSymbols", ptr %15, i32 0, i32 7
  %arraydecay28 = getelementptr inbounds [157 x i8], ptr %validLocale27, i64 0, i64 0
  %call29 = call ptr @strcpy(ptr noundef %arraydecay, ptr noundef %arraydecay28) #9
  %actualLocale = getelementptr inbounds %"class.icu_75::DecimalFormatSymbols", ptr %this1, i32 0, i32 6
  %arraydecay30 = getelementptr inbounds [157 x i8], ptr %actualLocale, i64 0, i64 0
  %16 = load ptr, ptr %rhs.addr, align 8
  %actualLocale31 = getelementptr inbounds %"class.icu_75::DecimalFormatSymbols", ptr %16, i32 0, i32 6
  %arraydecay32 = getelementptr inbounds [157 x i8], ptr %actualLocale31, i64 0, i64 0
  %call33 = call ptr @strcpy(ptr noundef %arraydecay30, ptr noundef %arraydecay32) #9
  %17 = load ptr, ptr %rhs.addr, align 8
  %fIsCustomCurrencySymbol = getelementptr inbounds %"class.icu_75::DecimalFormatSymbols", ptr %17, i32 0, i32 12
  %18 = load i8, ptr %fIsCustomCurrencySymbol, align 8
  %fIsCustomCurrencySymbol34 = getelementptr inbounds %"class.icu_75::DecimalFormatSymbols", ptr %this1, i32 0, i32 12
  store i8 %18, ptr %fIsCustomCurrencySymbol34, align 8
  %19 = load ptr, ptr %rhs.addr, align 8
  %fIsCustomIntlCurrencySymbol = getelementptr inbounds %"class.icu_75::DecimalFormatSymbols", ptr %19, i32 0, i32 13
  %20 = load i8, ptr %fIsCustomIntlCurrencySymbol, align 1
  %fIsCustomIntlCurrencySymbol35 = getelementptr inbounds %"class.icu_75::DecimalFormatSymbols", ptr %this1, i32 0, i32 13
  store i8 %20, ptr %fIsCustomIntlCurrencySymbol35, align 1
  %21 = load ptr, ptr %rhs.addr, align 8
  %fCodePointZero = getelementptr inbounds %"class.icu_75::DecimalFormatSymbols", ptr %21, i32 0, i32 3
  %22 = load i32, ptr %fCodePointZero, align 8
  %fCodePointZero36 = getelementptr inbounds %"class.icu_75::DecimalFormatSymbols", ptr %this1, i32 0, i32 3
  store i32 %22, ptr %fCodePointZero36, align 8
  %23 = load ptr, ptr %rhs.addr, align 8
  %currPattern = getelementptr inbounds %"class.icu_75::DecimalFormatSymbols", ptr %23, i32 0, i32 9
  %24 = load ptr, ptr %currPattern, align 8
  %currPattern37 = getelementptr inbounds %"class.icu_75::DecimalFormatSymbols", ptr %this1, i32 0, i32 9
  store ptr %24, ptr %currPattern37, align 8
  %nsName = getelementptr inbounds %"class.icu_75::DecimalFormatSymbols", ptr %this1, i32 0, i32 14
  %arraydecay38 = getelementptr inbounds [9 x i8], ptr %nsName, i64 0, i64 0
  %25 = load ptr, ptr %rhs.addr, align 8
  %nsName39 = getelementptr inbounds %"class.icu_75::DecimalFormatSymbols", ptr %25, i32 0, i32 14
  %arraydecay40 = getelementptr inbounds [9 x i8], ptr %nsName39, i64 0, i64 0
  %call41 = call ptr @strcpy(ptr noundef %arraydecay38, ptr noundef %arraydecay40) #9
  br label %if.end

if.end:                                           ; preds = %for.end24, %entry
  ret ptr %this1
}