; Function Attrs: mustprogress uwtable
define noundef nonnull align 8 dereferenceable(2883) ptr @_ZN6icu_7520DecimalFormatSymbolsaSERKS0_(ptr noundef nonnull returned align 8 dereferenceable(2883) %this, ptr noundef nonnull align 8 dereferenceable(2883) %rhs) local_unnamed_addr #1 align 2 {
entry:
  %cmp.not = icmp eq ptr %this, %rhs
  br i1 %cmp.not, label %if.end, label %for.cond.preheader

for.cond.preheader:                               ; preds = %entry
  %fSymbols = getelementptr inbounds i8, ptr %this, i64 8
  %fSymbols3 = getelementptr inbounds i8, ptr %rhs, i64 8
  br label %for.body

for.cond7.preheader:                              ; preds = %for.body
  %currencySpcBeforeSym = getelementptr inbounds i8, ptr %this, i64 2488
  %currencySpcBeforeSym12 = getelementptr inbounds i8, ptr %rhs, i64 2488
  %currencySpcAfterSym = getelementptr inbounds i8, ptr %this, i64 2680
  %currencySpcAfterSym18 = getelementptr inbounds i8, ptr %rhs, i64 2680
  br label %for.body9

for.body:                                         ; preds = %for.cond.preheader, %for.body
  %indvars.iv = phi i64 [ 0, %for.cond.preheader ], [ %indvars.iv.next, %for.body ]
  %arrayidx = getelementptr inbounds [29 x %"class.icu_75::UnicodeString"], ptr %fSymbols, i64 0, i64 %indvars.iv
  %arrayidx5 = getelementptr inbounds [29 x %"class.icu_75::UnicodeString"], ptr %fSymbols3, i64 0, i64 %indvars.iv
  %call = tail call noundef nonnull align 8 dereferenceable(64) ptr @_ZN6icu_7513UnicodeString12fastCopyFromERKS0_(ptr noundef nonnull align 8 dereferenceable(64) %arrayidx, ptr noundef nonnull align 8 dereferenceable(64) %arrayidx5)
  %indvars.iv.next = add nuw nsw i64 %indvars.iv, 1
  %exitcond.not = icmp eq i64 %indvars.iv.next, 29
  br i1 %exitcond.not, label %for.cond7.preheader, label %for.body, !llvm.loop !11

for.body9:                                        ; preds = %for.cond7.preheader, %for.body9
  %indvars.iv23 = phi i64 [ 0, %for.cond7.preheader ], [ %indvars.iv.next24, %for.body9 ]
  %arrayidx11 = getelementptr inbounds [3 x %"class.icu_75::UnicodeString"], ptr %currencySpcBeforeSym, i64 0, i64 %indvars.iv23
  %arrayidx14 = getelementptr inbounds [3 x %"class.icu_75::UnicodeString"], ptr %currencySpcBeforeSym12, i64 0, i64 %indvars.iv23
  %call15 = tail call noundef nonnull align 8 dereferenceable(64) ptr @_ZN6icu_7513UnicodeString12fastCopyFromERKS0_(ptr noundef nonnull align 8 dereferenceable(64) %arrayidx11, ptr noundef nonnull align 8 dereferenceable(64) %arrayidx14)
  %arrayidx17 = getelementptr inbounds [3 x %"class.icu_75::UnicodeString"], ptr %currencySpcAfterSym, i64 0, i64 %indvars.iv23
  %arrayidx20 = getelementptr inbounds [3 x %"class.icu_75::UnicodeString"], ptr %currencySpcAfterSym18, i64 0, i64 %indvars.iv23
  %call21 = tail call noundef nonnull align 8 dereferenceable(64) ptr @_ZN6icu_7513UnicodeString12fastCopyFromERKS0_(ptr noundef nonnull align 8 dereferenceable(64) %arrayidx17, ptr noundef nonnull align 8 dereferenceable(64) %arrayidx20)
  %indvars.iv.next24 = add nuw nsw i64 %indvars.iv23, 1
  %exitcond26.not = icmp eq i64 %indvars.iv.next24, 3
  br i1 %exitcond26.not, label %for.end24, label %for.body9, !llvm.loop !12

for.end24:                                        ; preds = %for.body9
  %locale = getelementptr inbounds i8, ptr %rhs, i64 1936
  %locale25 = getelementptr inbounds i8, ptr %this, i64 1936
  %call26 = tail call noundef nonnull align 8 dereferenceable(217) ptr @_ZN6icu_756LocaleaSERKS0_(ptr noundef nonnull align 8 dereferenceable(217) %locale25, ptr noundef nonnull align 8 dereferenceable(217) %locale)
  %validLocale = getelementptr inbounds i8, ptr %this, i64 2317
  %validLocale27 = getelementptr inbounds i8, ptr %rhs, i64 2317
  %call29 = tail call ptr @strcpy(ptr noundef nonnull dereferenceable(1) %validLocale, ptr noundef nonnull dereferenceable(1) %validLocale27) #15
  %actualLocale = getelementptr inbounds i8, ptr %this, i64 2160
  %actualLocale31 = getelementptr inbounds i8, ptr %rhs, i64 2160
  %call33 = tail call ptr @strcpy(ptr noundef nonnull dereferenceable(1) %actualLocale, ptr noundef nonnull dereferenceable(1) %actualLocale31) #15
  %fIsCustomCurrencySymbol = getelementptr inbounds i8, ptr %rhs, i64 2872
  %0 = load i8, ptr %fIsCustomCurrencySymbol, align 8
  %fIsCustomCurrencySymbol34 = getelementptr inbounds i8, ptr %this, i64 2872
  store i8 %0, ptr %fIsCustomCurrencySymbol34, align 8
  %fIsCustomIntlCurrencySymbol = getelementptr inbounds i8, ptr %rhs, i64 2873
  %1 = load i8, ptr %fIsCustomIntlCurrencySymbol, align 1
  %fIsCustomIntlCurrencySymbol35 = getelementptr inbounds i8, ptr %this, i64 2873
  store i8 %1, ptr %fIsCustomIntlCurrencySymbol35, align 1
  %fCodePointZero = getelementptr inbounds i8, ptr %rhs, i64 1928
  %2 = load i32, ptr %fCodePointZero, align 8
  %fCodePointZero36 = getelementptr inbounds i8, ptr %this, i64 1928
  store i32 %2, ptr %fCodePointZero36, align 8
  %currPattern = getelementptr inbounds i8, ptr %rhs, i64 2480
  %3 = load ptr, ptr %currPattern, align 8
  %currPattern37 = getelementptr inbounds i8, ptr %this, i64 2480
  store ptr %3, ptr %currPattern37, align 8
  %nsName = getelementptr inbounds i8, ptr %this, i64 2874
  %nsName39 = getelementptr inbounds i8, ptr %rhs, i64 2874
  %call41 = tail call ptr @strcpy(ptr noundef nonnull dereferenceable(1) %nsName, ptr noundef nonnull dereferenceable(1) %nsName39) #15
  br label %if.end

if.end:                                           ; preds = %for.end24, %entry
  ret ptr %this
}